g++ -c -std=c++11 instruction.cc
g++ -o main main.o log.o file.o section.o symbol.o relocation.o version.o instruction.o disasm.o dis-table.o operand.o upm.o block.o function.o edge.o utility.o asm.o asm-table.o
[14:4:4]		[3] Binary Abstraction Begin
[14:4:4]			[4] all data read successfully
[14:4:4]			[4] section vector construction completed
[14:4:4]			[4] merging sections completed
[14:4:4]			[4] complete symbol list construction
[14:4:4]			[4] complete relocation list construction
[14:4:4]			[4] handle so file
[14:4:4]			[4] all data read successfully
[14:4:4]			[4] section vector construction completed
[14:4:4]			[4] complete version vector construction
[14:4:4]			[4] complete adding empty sections
[14:4:4]			[4] complete allocating address for sections
[14:4:4]			[4] add virtual address to symbols value
[14:4:4]			[4] complete apply relocations
[14:4:4]		[3] Binary Abstraction Done
[14:4:4]		[3] disassemble binary code begin
Machine Code: 08EC8353
53    push ebx
Machine Code: E808EC83
83 EC 08    sub esp, 8
Machine Code: 0001FFE8
E8 FF 01 00 00    call near 08048460
Machine Code: 13CBC381
81 C3 CB 13 00 00    add ebx, 13CB
Machine Code: FFFC838B
8B 83 FC FF FF FF    mov eax, dword ptr ds:[ebx - 4]
Machine Code: 0574C085
85 C0    test eax, eax
Machine Code: 3AE80574
74 05    je short 08048276
Machine Code: 00003AE8
E8 3A 00 00 00    call near 080482B0
Machine Code: 5B08C483
83 C4 08    add esp, 8
Machine Code: 5B08C35B
5B    pop ebx
Machine Code: 5B08C3C3
C3    retn 0
Machine Code: 000035FF
FF 35 00 00 00 00    push dword ptr ds:[0]
Machine Code: 000025FF
FF 25 00 00 00 00    jmp dword ptr ds:[0]
Machine Code: 00000000
00 00    add byte ptr ds:[eax], al
Machine Code: 25FF0000
00 00    add byte ptr ds:[eax], al
Machine Code: 000025FF
FF 25 00 00 00 00    jmp dword ptr ds:[0]
Machine Code: 00000068
68 00 00 00 00    push 0
Machine Code: 000000E9
E9 00 00 00 00    jmp near 080482A0
Machine Code: 000025FF
FF 25 00 00 00 00    jmp dword ptr ds:[0]
Machine Code: 00000868
68 08 00 00 00    push 8
Machine Code: 000000E9
E9 00 00 00 00    jmp near 080482B0
Machine Code: 000025FF
FF 25 00 00 00 00    jmp dword ptr ds:[0]
Machine Code: 00001068
68 10 00 00 00    push 10
Machine Code: 000000E9
E9 00 00 00 00    jmp near 080482C0
Machine Code: 895EED31
31 ED    xor ebp, ebp
Machine Code: 83E1895E
5E    pop esi
Machine Code: E483E189
89 E1    mov ecx, esp
Machine Code: 50F0E483
83 E4 F0    and esp, 0F0
Machine Code: 68525450
50    push eax
Machine Code: 50685254
54    push esp
Machine Code: 84506852
52    push edx
Machine Code: 04845068
68 50 84 04 08    push 8048450
Machine Code: 0483E068
68 E0 83 04 08    push 80483E0
Machine Code: AA685651
51    push ecx
Machine Code: 83AA6856
56    push esi
Machine Code: 0483AA68
68 AA 83 04 08    push 80483AA
Machine Code: FFFFBFE8
E8 BF FF FF FF    call near 080482A0
Machine Code: 669066F4
F4    hlt
Machine Code: 90669066
66 90    xchg ax, ax
Machine Code: 90669066
66 90    xchg ax, ax
Machine Code: 90669066
66 90    xchg ax, ax
Machine Code: 90669066
66 90    xchg ax, ax
Machine Code: 90669066
66 90    xchg ax, ax
Machine Code: 90669066
66 90    xchg ax, ax
Machine Code: 53B89066
66 90    xchg ax, ax
Machine Code: 049653B8
B8 53 96 04 08    mov eax, 8049653
Machine Code: 0496502D
2D 50 96 04 08    sub eax, 8049650
Machine Code: 7606F883
83 F8 06    cmp eax, 6
Machine Code: 00B81976
76 19    jbe short 08048318
Machine Code: 000000B8
B8 00 00 00 00    mov eax, 0
Machine Code: 1074C085
85 C0    test eax, eax
Machine Code: 89551074
74 10    je short 08048318
Machine Code: 83E58955
55    push ebp
Machine Code: EC83E589
89 E5    mov ebp, esp
Machine Code: C718EC83
83 EC 18    sub esp, 18
Machine Code: 502404C7
C7 04 24 50 96 04 08    mov dword ptr ss:[esp], 8049650
Machine Code: C3C9D0FF
FF D0    call eax
Machine Code: B48DC3C9
C9    leave 
Machine Code: 26B48DC3
C3    retn 0
Machine Code: 0026B48D
8D B4 26 00 00 00 00    lea esi, dword ptr ds:[esi]
Machine Code: 049650B8
B8 50 96 04 08    mov eax, 8049650
Machine Code: 0496502D
2D 50 96 04 08    sub eax, 8049650
Machine Code: 8902F8C1
C1 F8 02    sar eax, 2
Machine Code: EAC1C289
89 C2    mov edx, eax
Machine Code: 011FEAC1
C1 EA 1F    shr edx, 1F
Machine Code: F8D1D001
01 D0    add eax, edx
Machine Code: 1D74F8D1
D1 F8    sar eax
Machine Code: 00BA1D74
74 1D    je short 08048355
Machine Code: 000000BA
BA 00 00 00 00    mov edx, 0
Machine Code: 1474D285
85 D2    test edx, edx
Machine Code: 89551474
74 14    je short 08048355
Machine Code: 83E58955
55    push ebp
Machine Code: EC83E589
89 E5    mov ebp, esp
Machine Code: 8918EC83
83 EC 18    sub esp, 18
Machine Code: 04244489
89 44 24 04    mov dword ptr ss:[esp + 4], eax
Machine Code: 502404C7
C7 04 24 50 96 04 08    mov dword ptr ss:[esp], 8049650
Machine Code: C3C9D2FF
FF D2    call edx
Machine Code: 768DC3C9
C9    leave 
Machine Code: 00768DC3
C3    retn 0
Machine Code: 8D00768D
8D 76 00    lea esi, dword ptr ds:[esi]
Machine Code: 0027BC8D
8D BC 27 00 00 00 00    lea edi, dword ptr ds:[edi]
Machine Code: 96583D80
80 3D 58 96 04 08 00    cmp byte ptr ds:[8049658], 0
Machine Code: 89551375
75 13    jne short 0804837C
Machine Code: 83E58955
55    push ebp
Machine Code: EC83E589
89 E5    mov ebp, esp
Machine Code: E808EC83
83 EC 08    sub esp, 8
Machine Code: FFFF7CE8
E8 7C FF FF FF    call near 080482F0
Machine Code: 965805C6
C6 05 58 96 04 08 01    mov byte ptr ds:[8049658], 1
Machine Code: 768DC3C9
C9    leave 
Machine Code: 00768DC3
C3    retn 0
Machine Code: B800768D
8D 76 00    lea esi, dword ptr ds:[esi]
Machine Code: 049644B8
B8 44 96 04 08    mov eax, 8049644
Machine Code: D285108B
8B 10    mov edx, dword ptr ds:[eax]
Machine Code: 0575D285
85 D2    test edx, edx
Machine Code: 93EB0575
75 05    jne short 08048390
Machine Code: 768D93EB
EB 93    jmp short 08048320
Machine Code: BA00768D
8D 76 00    lea esi, dword ptr ds:[esi]
Machine Code: 000000BA
BA 00 00 00 00    mov edx, 0
Machine Code: F274D285
85 D2    test edx, edx
Machine Code: 8955F274
74 F2    je short 0804838B
Machine Code: 83E58955
55    push ebp
Machine Code: EC83E589
89 E5    mov ebp, esp
Machine Code: 8918EC83
83 EC 18    sub esp, 18
Machine Code: FF240489
89 04 24    mov dword ptr ss:[esp], eax
Machine Code: E9C9D2FF
FF D2    call edx
Machine Code: FF76E9C9
C9    leave 
Machine Code: FFFF76E9
E9 76 FF FF FF    jmp near 08048320
Machine Code: 04244C8D
8D 4C 24 04    lea ecx, dword ptr ss:[esp + 4]
Machine Code: FFF0E483
83 E4 F0    and esp, 0F0
Machine Code: 55FC71FF
FF 71 FC    push dword ptr ds:[ecx - 4]
Machine Code: 51E58955
55    push ebp
Machine Code: 8351E589
89 E5    mov ebp, esp
Machine Code: 04EC8351
51    push ecx
Machine Code: 8304EC83
83 EC 04    sub esp, 4
Machine Code: 680CEC83
83 EC 0C    sub esp, 0C
Machine Code: 04847C68
68 7C 84 04 08    push 804847C
Machine Code: FFFEC8E8
E8 C8 FE FF FF    call near 08048290
Machine Code: B810C483
83 C4 10    add esp, 10
Machine Code: 000000B8
B8 00 00 00 00    mov eax, 0
Machine Code: C9FC4D8B
8B 4D FC    mov ecx, dword ptr ss:[ebp - 4]
Machine Code: FC618DC9
C9    leave 
Machine Code: C3FC618D
8D 61 FC    lea esp, dword ptr ds:[ecx - 4]
Machine Code: 669066C3
C3    retn 0
Machine Code: 90669066
66 90    xchg ax, ax
Machine Code: 90669066
66 90    xchg ax, ax
Machine Code: 90669066
66 90    xchg ax, ax
Machine Code: 57559066
66 90    xchg ax, ax
Machine Code: 31565755
55    push ebp
Machine Code: F6315657
57    push edi
Machine Code: 53F63156
56    push esi
Machine Code: E853F631
31 F6    xor esi, esi
Machine Code: 0075E853
53    push ebx
Machine Code: 000075E8
E8 75 00 00 00    call near 08048460
Machine Code: 1241C381
81 C3 41 12 00 00    add ebx, 1241
Machine Code: 8B2CEC83
83 EC 2C    sub esp, 2C
Machine Code: 40246C8B
8B 6C 24 40    mov ebp, dword ptr ss:[esp + 40]
Machine Code: 44247C8B
8B 7C 24 44    mov edi, dword ptr ss:[esp + 44]
Machine Code: FFFE57E8
E8 57 FE FF FF    call near 08048258
Machine Code: 0028838D
8D 83 28 00 00 00    lea eax, dword ptr ds:[ebx + 28]
Machine Code: 002C938D
8D 93 2C 00 00 00    lea edx, dword ptr ds:[ebx + 2C]
Machine Code: FAC1C229
29 C2    sub edx, eax
Machine Code: 8902FAC1
C1 FA 02    sar edx, 2
Machine Code: 1C245489
89 54 24 1C    mov dword ptr ss:[esp + 1C], edx
Machine Code: 8D902574
74 25    je short 0804843D
Machine Code: 26B48D90
90    nop
Machine Code: 0026B48D
8D B4 26 00 00 00 00    lea esi, dword ptr ds:[esi]
Machine Code: 4824448B
8B 44 24 48    mov eax, dword ptr ss:[esp + 48]
Machine Code: 04247C89
89 7C 24 04    mov dword ptr ss:[esp + 4], edi
Machine Code: 89242C89
89 2C 24    mov dword ptr ss:[esp], ebp
Machine Code: 08244489
89 44 24 08    mov dword ptr ss:[esp + 8], eax
Machine Code: 28B394FF
FF 94 B3 28 00 00 00    call dword ptr ds:[ebx + esi * 4 + 28]
Machine Code: 24743B46
46    inc esi
Machine Code: 1C24743B
3B 74 24 1C    cmp esi, dword ptr ss:[esp + 1C]
Machine Code: C483E375
75 E3    jne short 08048420
Machine Code: 5B2CC483
83 C4 2C    add esp, 2C
Machine Code: 5D5F5E5B
5B    pop ebx
Machine Code: C35D5F5E
5E    pop esi
Machine Code: 8DC35D5F
5F    pop edi
Machine Code: 748DC35D
5D    pop ebp
Machine Code: 26748DC3
C3    retn 0
Machine Code: 0026748D
8D 74 26 00    lea esi, dword ptr ds:[esi]
Machine Code: 0027BC8D
8D BC 27 00 00 00 00    lea edi, dword ptr ds:[edi]
Machine Code: 000000C3
C3    retn 0
Machine Code: 00000000
00 00    add byte ptr ds:[eax], al
Machine Code: 00000000
00 00    add byte ptr ds:[eax], al
Machine Code: 00000000
00 00    add byte ptr ds:[eax], al
Machine Code: 00000000
00 00    add byte ptr ds:[eax], al
Machine Code: 00000000
00 00    add byte ptr ds:[eax], al
Machine Code: 00000000
00 00    add byte ptr ds:[eax], al
Machine Code: 8B000000
00 00    add byte ptr ds:[eax], al
Machine Code: 241C8B00
NOT ENOUGH CODE
Machine Code: 08EC8353
53    push ebx
Machine Code: E808EC83
83 EC 08    sub esp, 8
Machine Code: FFFFF3E8
E8 F3 FF FF FF    call near 08048460
Machine Code: 11BFC381
81 C3 BF 11 00 00    add ebx, 11BF
Machine Code: 5B08C483
83 C4 08    add esp, 8
Machine Code: 5B08C35B
5B    pop ebx
Machine Code: 5B08C3C3
C3    retn 0
[14:4:4]		[3] disassemble binary code end
[14:4:4]		[3] construct control flow graph begin
[14:4:4]			[4] mark instruction for bbl
[14:4:4]			[4] mark functions
[14:4:4]			[4] create basic block list
[14:4:4]			[4] create function list
[14:4:4]			[4] resolve ret block to exit block
[14:4:4]			[4] resolve cfg targets
[14:4:4]			[4] resolve entryless functions
[14:4:4]		[3] construct control flow graph end
BEGIN
08048258   53                   push ebx
08048259   83 EC 08             sub esp, 8
0804825C   E8 FF 01 00 00       call near 08048460
08048261   81 C3 CB 13 00 00    add ebx, 13CB
08048267   8B 83 FC FF FF FF    mov eax, dword ptr ds:[ebx - 4]
0804826D   85 C0                test eax, eax
0804826F   74 05                je short 08048276
08048271   E8 3A 00 00 00       call near 080482B0
08048276   83 C4 08             add esp, 8
08048279   5B                   pop ebx
0804827A   C3                   retn 0
08048280   FF 35 00 00 00 00    push dword ptr ds:[0]
08048286   FF 25 00 00 00 00    jmp dword ptr ds:[0]
0804828C   00 00                add byte ptr ds:[eax], al
0804828E   00 00                add byte ptr ds:[eax], al
08048290   FF 25 00 00 00 00    jmp dword ptr ds:[0]
08048296   68 00 00 00 00       push 0
0804829B   E9 00 00 00 00       jmp near 080482A0
080482A0   FF 25 00 00 00 00    jmp dword ptr ds:[0]
080482A6   68 08 00 00 00       push 8
080482AB   E9 00 00 00 00       jmp near 080482B0
080482B0   FF 25 00 00 00 00    jmp dword ptr ds:[0]
080482B6   68 10 00 00 00       push 10
080482BB   E9 00 00 00 00       jmp near 080482C0
080482C0   31 ED                xor ebp, ebp
080482C2   5E                   pop esi
080482C3   89 E1                mov ecx, esp
080482C5   83 E4 F0             and esp, 0F0
080482C8   50                   push eax
080482C9   54                   push esp
080482CA   52                   push edx
080482CB   68 50 84 04 08       push 8048450
080482D0   68 E0 83 04 08       push 80483E0
080482D5   51                   push ecx
080482D6   56                   push esi
080482D7   68 AA 83 04 08       push 80483AA
080482DC   E8 BF FF FF FF       call near 080482A0
080482E1   F4                   hlt
080482E2   66 90                xchg ax, ax
080482E4   66 90                xchg ax, ax
080482E6   66 90                xchg ax, ax
080482E8   66 90                xchg ax, ax
080482EA   66 90                xchg ax, ax
080482EC   66 90                xchg ax, ax
080482EE   66 90                xchg ax, ax
080482F0   B8 53 96 04 08       mov eax, 8049653
080482F5   2D 50 96 04 08       sub eax, 8049650
080482FA   83 F8 06             cmp eax, 6
080482FD   76 19                jbe short 08048318
080482FF   B8 00 00 00 00       mov eax, 0
08048304   85 C0                test eax, eax
08048306   74 10                je short 08048318
08048308   55                   push ebp
08048309   89 E5                mov ebp, esp
0804830B   83 EC 18             sub esp, 18
0804830E   C7 04 24 50 96 04 08  mov dword ptr ss:[esp], 8049650
08048315   FF D0                call eax
08048317   C9                   leave 
08048318   C3                   retn 0
08048319   8D B4 26 00 00 00 00  lea esi, dword ptr ds:[esi]
08048320   B8 50 96 04 08       mov eax, 8049650
08048325   2D 50 96 04 08       sub eax, 8049650
0804832A   C1 F8 02             sar eax, 2
0804832D   89 C2                mov edx, eax
0804832F   C1 EA 1F             shr edx, 1F
08048332   01 D0                add eax, edx
08048334   D1 F8                sar eax
08048336   74 1D                je short 08048355
08048338   BA 00 00 00 00       mov edx, 0
0804833D   85 D2                test edx, edx
0804833F   74 14                je short 08048355
08048341   55                   push ebp
08048342   89 E5                mov ebp, esp
08048344   83 EC 18             sub esp, 18
08048347   89 44 24 04          mov dword ptr ss:[esp + 4], eax
0804834B   C7 04 24 50 96 04 08  mov dword ptr ss:[esp], 8049650
08048352   FF D2                call edx
08048354   C9                   leave 
08048355   C3                   retn 0
08048356   8D 76 00             lea esi, dword ptr ds:[esi]
08048359   8D BC 27 00 00 00 00  lea edi, dword ptr ds:[edi]
08048360   80 3D 58 96 04 08 00  cmp byte ptr ds:[8049658], 0
08048367   75 13                jne short 0804837C
08048369   55                   push ebp
0804836A   89 E5                mov ebp, esp
0804836C   83 EC 08             sub esp, 8
0804836F   E8 7C FF FF FF       call near 080482F0
08048374   C6 05 58 96 04 08 01  mov byte ptr ds:[8049658], 1
0804837B   C9                   leave 
0804837C   C3                   retn 0
0804837D   8D 76 00             lea esi, dword ptr ds:[esi]
08048380   B8 44 96 04 08       mov eax, 8049644
08048385   8B 10                mov edx, dword ptr ds:[eax]
08048387   85 D2                test edx, edx
08048389   75 05                jne short 08048390
0804838B   EB 93                jmp short 08048320
0804838D   8D 76 00             lea esi, dword ptr ds:[esi]
08048390   BA 00 00 00 00       mov edx, 0
08048395   85 D2                test edx, edx
08048397   74 F2                je short 0804838B
08048399   55                   push ebp
0804839A   89 E5                mov ebp, esp
0804839C   83 EC 18             sub esp, 18
0804839F   89 04 24             mov dword ptr ss:[esp], eax
080483A2   FF D2                call edx
080483A4   C9                   leave 
080483A5   E9 76 FF FF FF       jmp near 08048320
080483AA   8D 4C 24 04          lea ecx, dword ptr ss:[esp + 4]
080483AE   83 E4 F0             and esp, 0F0
080483B1   FF 71 FC             push dword ptr ds:[ecx - 4]
080483B4   55                   push ebp
080483B5   89 E5                mov ebp, esp
080483B7   51                   push ecx
080483B8   83 EC 04             sub esp, 4
080483BB   83 EC 0C             sub esp, 0C
080483BE   68 7C 84 04 08       push 804847C
080483C3   E8 C8 FE FF FF       call near 08048290
080483C8   83 C4 10             add esp, 10
080483CB   B8 00 00 00 00       mov eax, 0
080483D0   8B 4D FC             mov ecx, dword ptr ss:[ebp - 4]
080483D3   C9                   leave 
080483D4   8D 61 FC             lea esp, dword ptr ds:[ecx - 4]
080483D7   C3                   retn 0
080483D8   66 90                xchg ax, ax
080483DA   66 90                xchg ax, ax
080483DC   66 90                xchg ax, ax
080483DE   66 90                xchg ax, ax
080483E0   55                   push ebp
080483E1   57                   push edi
080483E2   56                   push esi
080483E3   31 F6                xor esi, esi
080483E5   53                   push ebx
080483E6   E8 75 00 00 00       call near 08048460
080483EB   81 C3 41 12 00 00    add ebx, 1241
080483F1   83 EC 2C             sub esp, 2C
080483F4   8B 6C 24 40          mov ebp, dword ptr ss:[esp + 40]
080483F8   8B 7C 24 44          mov edi, dword ptr ss:[esp + 44]
080483FC   E8 57 FE FF FF       call near 08048258
08048401   8D 83 28 00 00 00    lea eax, dword ptr ds:[ebx + 28]
08048407   8D 93 2C 00 00 00    lea edx, dword ptr ds:[ebx + 2C]
0804840D   29 C2                sub edx, eax
0804840F   C1 FA 02             sar edx, 2
08048412   89 54 24 1C          mov dword ptr ss:[esp + 1C], edx
08048416   74 25                je short 0804843D
08048418   90                   nop
08048419   8D B4 26 00 00 00 00  lea esi, dword ptr ds:[esi]
08048420   8B 44 24 48          mov eax, dword ptr ss:[esp + 48]
08048424   89 7C 24 04          mov dword ptr ss:[esp + 4], edi
08048428   89 2C 24             mov dword ptr ss:[esp], ebp
0804842B   89 44 24 08          mov dword ptr ss:[esp + 8], eax
0804842F   FF 94 73 28 00 00 00  call dword ptr ds:[ebx + esi * 2 + 28]
08048436   46                   inc esi
08048437   3B 74 24 1C          cmp esi, dword ptr ss:[esp + 1C]
0804843B   75 E3                jne short 08048420
0804843D   83 C4 2C             add esp, 2C
08048440   5B                   pop ebx
08048441   5E                   pop esi
08048442   5F                   pop edi
08048443   5D                   pop ebp
08048444   C3                   retn 0
08048445   8D 74 26 00          lea esi, dword ptr ds:[esi]
08048449   8D BC 27 00 00 00 00  lea edi, dword ptr ds:[edi]
08048450   C3                   retn 0
08048451   00 00                add byte ptr ds:[eax], al
08048453   00 00                add byte ptr ds:[eax], al
08048455   00 00                add byte ptr ds:[eax], al
08048457   00 00                add byte ptr ds:[eax], al
08048459   00 00                add byte ptr ds:[eax], al
0804845B   00 00                add byte ptr ds:[eax], al
0804845D   00 00                add byte ptr ds:[eax], al
08048464   53                   push ebx
08048465   83 EC 08             sub esp, 8
08048468   E8 F3 FF FF FF       call near 08048460
0804846D   81 C3 BF 11 00 00    add ebx, 11BF
08048473   83 C4 08             add esp, 8
08048476   5B                   pop ebx
08048477   C3                   retn 0
END
[14:4:4]		[3] Patch Section Final Content Begin
[14:4:4]			[4] update .dynsym done
[14:4:4]			[4] update .hash done
[14:4:4]			[4] update .gnu.version done
[14:4:4]			[4] update .gnu.version_r done
[14:4:4]			[4] update .rel.dyn done
[14:4:4]			[4] update .rel.plt done
[14:4:4]			[4] update .plt done
[14:4:4]			[4] update .dynamic done
[14:4:4]			[4] update .got.plt done
[14:4:4]			[4] update .symtab done
[14:4:4]		[3] Patch Section Final Content End
[14:4:4]		[3] Start construct file header and tail
[14:4:4]			[4] construction section table
[14:4:4]			[4] construction program header
[14:4:4]			[4] construction file header
[14:4:4]			[4] write out to file
[14:4:4]		[3] All done!
